Certificate:
    Data:
        Version: 3 (0x2)
        Serial Number: 1 (0x1)
        Signature Algorithm: sha256WithRSAEncryption
        Issuer: C=CN, ST=Beijing, O=huawei, OU=gauss, CN=root
        Validity
            Not Before: Jun 15 09:18:49 2021 GMT
            Not After : Jun 15 09:18:49 2022 GMT
        Subject: C=CN, ST=Beijing, O=huawei, OU=gauss, CN=root
        Subject Public Key Info:
            Public Key Algorithm: rsaEncryption
                RSA Public-Key: (2048 bit)
                Modulus:
                    00:d6:af:3c:06:de:49:7d:9c:c1:1c:4c:19:ec:92:
                    a1:06:6e:cd:58:a5:74:d1:da:25:6c:4e:26:3f:87:
                    1d:fd:b5:0d:04:cb:56:54:be:10:13:d3:82:36:a3:
                    9f:1f:fe:5d:02:d2:9d:c8:e8:d4:3c:0c:17:54:e3:
                    45:d0:db:02:ed:6b:7f:22:dd:e2:45:03:32:63:e8:
                    c5:f2:0a:80:f9:9e:c8:b7:ba:a0:9b:2b:75:c0:6c:
                    f9:d5:0c:3b:25:09:e3:49:57:60:ae:ce:1a:84:4e:
                    5b:f5:84:6b:48:7c:10:62:7b:b3:5c:4b:4d:ec:01:
                    b6:e2:7b:69:fe:17:eb:3a:98:7a:68:08:dd:ee:08:
                    c8:b0:bd:b9:94:31:5c:5f:07:5f:0c:99:c3:a9:ce:
                    ee:ff:20:63:e1:23:91:b4:f9:b4:9b:40:28:ce:8d:
                    33:88:35:05:9d:47:17:fe:e4:d2:59:8d:db:12:5d:
                    96:ce:b8:36:88:c0:60:76:38:1d:b1:d5:6a:38:f2:
                    15:b7:59:5e:7d:5a:7c:e4:98:62:d7:e6:52:46:9e:
                    07:90:e4:3f:99:fe:1a:27:a3:d1:b8:ff:c7:6a:db:
                    7c:4b:fd:99:b9:7c:04:ca:8b:b3:44:de:70:f1:32:
                    92:c4:06:cd:a5:62:56:59:e8:18:0c:78:ac:be:8f:
                    59:95
                Exponent: 65537 (0x10001)
        X509v3 extensions:
            X509v3 Basic Constraints: 
                CA:TRUE
            Netscape Comment: 
                OpenSSL Generated Certificate
            X509v3 Subject Key Identifier: 
                63:3D:88:FB:DA:17:D5:20:C7:6D:BF:C9:BA:96:DE:17:75:CB:5F:EF
            X509v3 Authority Key Identifier: 
                keyid:63:3D:88:FB:DA:17:D5:20:C7:6D:BF:C9:BA:96:DE:17:75:CB:5F:EF

    Signature Algorithm: sha256WithRSAEncryption
         af:fc:16:7e:e2:39:83:11:00:a6:0f:a8:1f:8f:11:36:31:ce:
         6c:ed:9a:8d:54:34:44:19:12:fd:18:42:23:0c:c1:2e:7b:82:
         05:7f:e6:bf:a0:c8:71:f1:a8:f1:36:6a:5b:20:eb:93:30:dd:
         ec:50:f2:a8:e7:41:1d:7d:48:4e:ee:c7:b1:18:c1:6c:12:4e:
         67:c3:85:1c:60:d5:42:f8:f0:59:34:b6:50:5e:be:6d:96:32:
         ce:32:74:17:51:9e:8d:1a:64:20:68:6c:9a:a7:10:5a:d7:66:
         cc:1d:23:5c:8f:43:13:6a:7b:b6:66:32:f5:86:b8:ae:8e:de:
         d7:2b:56:11:37:03:77:a7:9c:bd:9b:2f:d8:57:00:11:82:51:
         cb:c7:34:ec:4a:20:95:8d:52:43:43:1d:e7:b6:ea:69:fd:87:
         8f:d2:b6:14:a3:63:20:04:34:e3:38:88:14:9d:3d:d7:a2:25:
         1c:9d:b3:a8:e8:1c:48:86:89:22:cf:62:20:9c:91:7e:e8:af:
         af:ca:40:dc:b0:71:bb:ef:11:92:db:7f:70:a8:2c:a7:36:6a:
         24:de:a6:89:a5:96:e0:76:bd:69:3e:21:40:f6:35:6a:fe:ec:
         d2:51:ec:f1:88:87:41:44:15:83:a2:c9:33:14:47:5f:8c:da:
         6b:05:93:7f
-----BEGIN CERTIFICATE-----
MIIDlzCCAn+gAwIBAgIBATANBgkqhkiG9w0BAQsFADBPMQswCQYDVQQGEwJDTjEQ
MA4GA1UECAwHQmVpamluZzEPMA0GA1UECgwGaHVhd2VpMQ4wDAYDVQQLDAVnYXVz
czENMAsGA1UEAwwEcm9vdDAeFw0yMTA2MTUwOTE4NDlaFw0yMjA2MTUwOTE4NDla
ME8xCzAJBgNVBAYTAkNOMRAwDgYDVQQIDAdCZWlqaW5nMQ8wDQYDVQQKDAZodWF3
ZWkxDjAMBgNVBAsMBWdhdXNzMQ0wCwYDVQQDDARyb290MIIBIjANBgkqhkiG9w0B
AQEFAAOCAQ8AMIIBCgKCAQEA1q88Bt5JfZzBHEwZ7JKhBm7NWKV00dolbE4mP4cd
/bUNBMtWVL4QE9OCNqOfH/5dAtKdyOjUPAwXVONF0NsC7Wt/It3iRQMyY+jF8gqA
+Z7It7qgmyt1wGz51Qw7JQnjSVdgrs4ahE5b9YRrSHwQYnuzXEtN7AG24ntp/hfr
Oph6aAjd7gjIsL25lDFcXwdfDJnDqc7u/yBj4SORtPm0m0Aozo0ziDUFnUcX/uTS
WY3bEl2Wzrg2iMBgdjgdsdVqOPIVt1lefVp85Jhi1+ZSRp4HkOQ/mf4aJ6PRuP/H
att8S/2ZuXwEyouzRN5w8TKSxAbNpWJWWegYDHisvo9ZlQIDAQABo34wfDAMBgNV
HRMEBTADAQH/MCwGCWCGSAGG+EIBDQQfFh1PcGVuU1NMIEdlbmVyYXRlZCBDZXJ0
aWZpY2F0ZTAdBgNVHQ4EFgQUYz2I+9oX1SDHbb/JupbeF3XLX+8wHwYDVR0jBBgw
FoAUYz2I+9oX1SDHbb/JupbeF3XLX+8wDQYJKoZIhvcNAQELBQADggEBAK/8Fn7i
OYMRAKYPqB+PETYxzmztmo1UNEQZEv0YQiMMwS57ggV/5r+gyHHxqPE2alsg65Mw
3exQ8qjnQR19SE7ux7EYwWwSTmfDhRxg1UL48Fk0tlBevm2WMs4ydBdRno0aZCBo
bJqnEFrXZswdI1yPQxNqe7ZmMvWGuK6O3tcrVhE3A3ennL2bL9hXABGCUcvHNOxK
IJWNUkNDHee26mn9h4/SthSjYyAENOM4iBSdPdeiJRyds6joHEiGiSLPYiCckX7o
r6/KQNywcbvvEZLbf3CoLKc2aiTepomlluB2vWk+IUD2NWr+7NJR7PGIh0FEFYOi
yTMUR1+M2msFk38=
-----END CERTIFICATE-----
