Certificate:
    Data:
        Version: 3 (0x2)
        Serial Number: 2 (0x2)
        Signature Algorithm: sha256WithRSAEncryption
        Issuer: C=CN, ST=Beijing, O=huawei, OU=gauss, CN=root
        Validity
            Not Before: Jun 15 09:18:49 2021 GMT
            Not After : Jun 13 09:18:49 2031 GMT
        Subject: C=CN, ST=Beijing, O=huawei, OU=gauss, CN=server
        Subject Public Key Info:
            Public Key Algorithm: rsaEncryption
                RSA Public-Key: (2048 bit)
                Modulus:
                    00:c5:a1:39:ff:d1:e5:50:2d:5c:e4:fe:f9:54:e3:
                    11:f3:ce:33:cf:78:f8:17:6b:fd:5e:52:85:d7:90:
                    82:c3:76:7c:51:14:1d:8f:0d:11:a1:71:d1:01:58:
                    31:e2:0b:bf:06:9a:c1:40:60:10:e8:83:35:ec:24:
                    93:a8:e3:ec:c5:2a:18:db:3f:61:d7:e9:d5:aa:9e:
                    bd:b1:d1:1d:18:a7:5f:e2:c3:eb:9e:dd:15:69:eb:
                    03:fb:93:fc:19:f8:69:7c:80:f6:ca:a1:16:43:49:
                    d1:7e:56:80:28:74:e7:2a:07:38:08:84:56:e4:f9:
                    62:ce:67:a6:a2:3d:45:d7:67:d6:af:f7:74:27:36:
                    c4:77:58:97:72:64:0c:14:5f:70:7b:04:c3:39:e4:
                    03:38:74:a5:0c:07:9e:7f:7a:cf:6a:4a:6e:1a:17:
                    61:9e:48:b6:d5:b9:92:85:ec:9d:1b:44:15:b4:34:
                    7a:cf:8a:d6:a8:70:41:81:0d:3d:c5:92:4a:7f:a2:
                    52:a8:bc:9f:52:f8:da:c2:f2:6f:ee:5b:c8:92:78:
                    86:d6:a4:95:63:67:88:7f:e8:45:16:85:4c:f3:66:
                    a7:4a:e9:4d:18:a6:71:51:b9:05:07:66:ab:86:42:
                    af:26:e3:a7:17:3d:86:d7:60:1d:d9:62:27:30:a8:
                    c6:0f
                Exponent: 65537 (0x10001)
        X509v3 extensions:
            X509v3 Basic Constraints: 
                CA:FALSE
            Netscape Comment: 
                OpenSSL Generated Certificate
            X509v3 Subject Key Identifier: 
                0D:25:5F:EA:91:57:11:3C:71:49:9F:4C:EE:EE:CF:07:46:8A:11:6F
            X509v3 Authority Key Identifier: 
                keyid:63:3D:88:FB:DA:17:D5:20:C7:6D:BF:C9:BA:96:DE:17:75:CB:5F:EF

    Signature Algorithm: sha256WithRSAEncryption
         5b:0b:cb:bf:85:64:38:d9:f7:9b:59:26:2d:0e:48:ed:67:c4:
         21:bd:23:b7:9a:7d:39:eb:c0:c0:90:63:53:b7:33:d1:3a:b1:
         be:d5:25:dd:30:78:fe:02:b2:c8:e0:5e:53:73:4b:2c:c2:78:
         c2:9b:7a:db:36:01:ae:17:0b:2c:c2:ae:38:ae:e0:3e:fc:f8:
         81:6b:a2:a2:50:d9:4e:25:86:b9:ce:6d:f9:f3:36:18:3a:10:
         2d:30:0a:4d:92:88:b7:61:b9:05:54:0f:29:de:fe:6a:e1:2c:
         fa:4b:ba:a0:03:e3:a1:91:e5:1d:34:e5:b2:54:7d:ef:2b:e9:
         8b:5d:a8:c4:7e:30:9e:ac:25:8c:fc:07:20:af:9c:cb:0d:f1:
         cd:5f:67:0b:bb:55:16:e8:ed:0a:a4:5a:44:75:22:e8:87:79:
         66:f5:27:5d:77:28:6b:79:3e:65:c0:55:78:b8:ed:8f:71:e9:
         29:a0:ec:b5:bb:33:53:df:a0:03:0c:c2:ae:0c:0f:d9:03:a8:
         5a:1c:6a:6c:db:6f:63:89:5c:4a:e4:b5:91:b0:d2:cd:7d:d6:
         fd:43:85:a2:11:41:66:e8:64:5f:fc:91:aa:99:ed:bb:f2:3f:
         20:60:d6:94:fb:27:b4:32:95:86:f5:51:37:85:a2:bb:08:69:
         bf:8f:ff:a4
-----BEGIN CERTIFICATE-----
MIIDljCCAn6gAwIBAgIBAjANBgkqhkiG9w0BAQsFADBPMQswCQYDVQQGEwJDTjEQ
MA4GA1UECAwHQmVpamluZzEPMA0GA1UECgwGaHVhd2VpMQ4wDAYDVQQLDAVnYXVz
czENMAsGA1UEAwwEcm9vdDAeFw0yMTA2MTUwOTE4NDlaFw0zMTA2MTMwOTE4NDla
MFExCzAJBgNVBAYTAkNOMRAwDgYDVQQIDAdCZWlqaW5nMQ8wDQYDVQQKDAZodWF3
ZWkxDjAMBgNVBAsMBWdhdXNzMQ8wDQYDVQQDDAZzZXJ2ZXIwggEiMA0GCSqGSIb3
DQEBAQUAA4IBDwAwggEKAoIBAQDFoTn/0eVQLVzk/vlU4xHzzjPPePgXa/1eUoXX
kILDdnxRFB2PDRGhcdEBWDHiC78GmsFAYBDogzXsJJOo4+zFKhjbP2HX6dWqnr2x
0R0Yp1/iw+ue3RVp6wP7k/wZ+Gl8gPbKoRZDSdF+VoAodOcqBzgIhFbk+WLOZ6ai
PUXXZ9av93QnNsR3WJdyZAwUX3B7BMM55AM4dKUMB55/es9qSm4aF2GeSLbVuZKF
7J0bRBW0NHrPitaocEGBDT3Fkkp/olKovJ9S+NrC8m/uW8iSeIbWpJVjZ4h/6EUW
hUzzZqdK6U0YpnFRuQUHZquGQq8m46cXPYbXYB3ZYicwqMYPAgMBAAGjezB5MAkG
A1UdEwQCMAAwLAYJYIZIAYb4QgENBB8WHU9wZW5TU0wgR2VuZXJhdGVkIENlcnRp
ZmljYXRlMB0GA1UdDgQWBBQNJV/qkVcRPHFJn0zu7s8HRooRbzAfBgNVHSMEGDAW
gBRjPYj72hfVIMdtv8m6lt4Xdctf7zANBgkqhkiG9w0BAQsFAAOCAQEAWwvLv4Vk
ONn3m1kmLQ5I7WfEIb0jt5p9OevAwJBjU7cz0TqxvtUl3TB4/gKyyOBeU3NLLMJ4
wpt62zYBrhcLLMKuOK7gPvz4gWuiolDZTiWGuc5t+fM2GDoQLTAKTZKIt2G5BVQP
Kd7+auEs+ku6oAPjoZHlHTTlslR97yvpi12oxH4wnqwljPwHIK+cyw3xzV9nC7tV
FujtCqRaRHUi6Id5ZvUnXXcoa3k+ZcBVeLjtj3HpKaDstbszU9+gAwzCrgwP2QOo
WhxqbNtvY4lcSuS1kbDSzX3W/UOFohFBZuhkX/yRqpntu/I/IGDWlPsntDKVhvVR
N4Wiuwhpv4//pA==
-----END CERTIFICATE-----
